target datalayout = "e-m:e-p270:32:32-p271:32:32-p272:64:64-i64:64-i128:128-f80:128-n8:16:32:64-S128"
target triple = "x86_64-pc-linux-gnu"

%struct.JNINativeInterface_ = type { ptr, ptr, ptr, ptr, ptr, ptr, ptr, ptr, ptr, ptr, ptr, ptr, ptr, ptr, ptr, ptr, ptr, ptr, ptr, ptr, ptr, ptr, ptr, ptr, ptr, ptr, ptr, ptr, ptr, ptr, ptr, ptr, ptr, ptr, ptr, ptr, ptr, ptr, ptr, ptr, ptr, ptr, ptr, ptr, ptr, ptr, ptr, ptr, ptr, ptr, ptr, ptr, ptr, ptr, ptr, ptr, ptr, ptr, ptr, ptr, ptr, ptr, ptr, ptr, ptr, ptr, ptr, ptr, ptr, ptr, ptr, ptr, ptr, ptr, ptr, ptr, ptr, ptr, ptr, ptr, ptr, ptr, ptr, ptr, ptr, ptr, ptr, ptr, ptr, ptr, ptr, ptr, ptr, ptr, ptr, ptr, ptr, ptr, ptr, ptr, ptr, ptr, ptr, ptr, ptr, ptr, ptr, ptr, ptr, ptr, ptr, ptr, ptr, ptr, ptr, ptr, ptr, ptr, ptr, ptr, ptr, ptr, ptr, ptr, ptr, ptr, ptr, ptr, ptr, ptr, ptr, ptr, ptr, ptr, ptr, ptr, ptr, ptr, ptr, ptr, ptr, ptr, ptr, ptr, ptr, ptr, ptr, ptr, ptr, ptr, ptr, ptr, ptr, ptr, ptr, ptr, ptr, ptr, ptr, ptr, ptr, ptr, ptr, ptr, ptr, ptr, ptr, ptr, ptr, ptr, ptr, ptr, ptr, ptr, ptr, ptr, ptr, ptr, ptr, ptr, ptr, ptr, ptr, ptr, ptr, ptr, ptr, ptr, ptr, ptr, ptr, ptr, ptr, ptr, ptr, ptr, ptr, ptr, ptr, ptr, ptr, ptr, ptr, ptr, ptr, ptr, ptr, ptr, ptr, ptr, ptr, ptr, ptr, ptr, ptr, ptr, ptr, ptr, ptr, ptr, ptr, ptr, ptr, ptr, ptr, ptr, ptr, ptr, ptr, ptr, ptr, ptr, ptr, ptr, ptr }
%struct.timeval = type { i64, i64 }

@tkClass = external global ptr, align 8
@awtLockMID = external global ptr, align 8
@awt_display = external global ptr, align 8
@awtUnlockMID = external global ptr, align 8
@jvm_xawt = external global ptr, align 8
@awt_MainThread = internal global i64 0, align 8
@awt_next_flush_time = internal global i64 0, align 8
@awt_last_flush_time = internal global i64 0, align 8
@AWT_FLUSH_TIMEOUT = internal global i32 100, align 4
@tracing = internal global i32 0, align 4
@.str.27 = private unnamed_addr constant [4 x i8] c"f1\0A\00", align 1
@.str.28 = private unnamed_addr constant [4 x i8] c"f2\0A\00", align 1
@awt_pipe_fds = internal global [2 x i32] zeroinitializer, align 4
@awt_pipe_inited = internal global i8 0, align 1
@wakeUp.wakeUp_char = internal global i8 112, align 1

; Function Attrs: nounwind uwtable
define internal i32 @isMainThread() #0 {
  %1 = load i64, ptr @awt_MainThread, align 8
  %2 = call i64 @pthread_self() #6
  %3 = icmp eq i64 %1, %2
  %4 = zext i1 %3 to i32
  ret i32 %4
}

; Function Attrs: nounwind uwtable
define internal void @wakeUp() #0 {
  %1 = call i32 @isMainThread()
  %2 = icmp ne i32 %1, 0
  br i1 %2, label %10, label %3

3:                                                ; preds = %0
  %4 = load i8, ptr @awt_pipe_inited, align 1
  %5 = sext i8 %4 to i32
  %6 = icmp ne i32 %5, 0
  br i1 %6, label %7, label %10

7:                                                ; preds = %3
  %8 = load i32, ptr getelementptr inbounds ([2 x i32], ptr @awt_pipe_fds, i64 0, i64 1), align 4
  %9 = call i64 @write(i32 noundef %8, ptr noundef @wakeUp.wakeUp_char, i64 noundef 1)
  br label %10

10:                                               ; preds = %7, %3, %0
  ret void
}

; Function Attrs: nounwind uwtable
define internal i64 @awtJNI_TimeMillis() #0 {
  %1 = alloca %struct.timeval, align 8
  %2 = call i32 @gettimeofday(ptr noundef %1, ptr noundef null) #5
  %3 = getelementptr inbounds %struct.timeval, ptr %1, i32 0, i32 0
  %4 = load i64, ptr %3, align 8
  %5 = mul nsw i64 %4, 1000
  %6 = getelementptr inbounds %struct.timeval, ptr %1, i32 0, i32 1
  %7 = load i64, ptr %6, align 8
  %8 = sdiv i64 %7, 1000
  %9 = add nsw i64 %5, %8
  ret i64 %9
}

; Function Attrs: nounwind uwtable
define hidden void @awt_output_flush() #0 {
  %1 = alloca ptr, align 8
  %2 = alloca i64, align 8
  %3 = alloca i64, align 8
  %4 = alloca i64, align 8
  %5 = alloca ptr, align 8
  %6 = load i64, ptr @awt_next_flush_time, align 8
  %7 = icmp eq i64 %6, 0
  br i1 %7, label %8, label %122

8:                                                ; preds = %0
  %9 = load ptr, ptr @jvm_xawt, align 8
  %10 = call ptr @JNU_GetEnv(ptr noundef %9, i32 noundef 65538)
  store ptr %10, ptr %1, align 8
  %11 = call i64 @awtJNI_TimeMillis()
  store i64 %11, ptr %2, align 8
  %12 = load i64, ptr @awt_last_flush_time, align 8
  store i64 %12, ptr %3, align 8
  %13 = load i64, ptr %3, align 8
  %14 = load i32, ptr @AWT_FLUSH_TIMEOUT, align 4
  %15 = zext i32 %14 to i64
  %16 = add nsw i64 %13, %15
  store i64 %16, ptr %4, align 8
  %17 = load i64, ptr %2, align 8
  %18 = load i64, ptr %4, align 8
  %19 = icmp sge i64 %17, %18
  br i1 %19, label %20, label %114

20:                                               ; preds = %8
  %21 = load i32, ptr @tracing, align 4
  %22 = icmp ne i32 %21, 0
  br i1 %22, label %23, label %25

23:                                               ; preds = %20
  %24 = call i32 (ptr, ...) @printf(ptr noundef @.str.27)
  br label %25

25:                                               ; preds = %23, %20
  br label %26

26:                                               ; preds = %25
  %27 = load ptr, ptr %1, align 8
  %28 = load ptr, ptr %27, align 8
  %29 = getelementptr inbounds %struct.JNINativeInterface_, ptr %28, i32 0, i32 228
  %30 = load ptr, ptr %29, align 8
  %31 = load ptr, ptr %1, align 8
  %32 = call zeroext i8 %30(ptr noundef %31)
  %33 = icmp ne i8 %32, 0
  br i1 %33, label %34, label %40

34:                                               ; preds = %26
  %35 = load ptr, ptr %1, align 8
  %36 = load ptr, ptr %35, align 8
  %37 = getelementptr inbounds %struct.JNINativeInterface_, ptr %36, i32 0, i32 17
  %38 = load ptr, ptr %37, align 8
  %39 = load ptr, ptr %1, align 8
  call void %38(ptr noundef %39)
  br label %40

40:                                               ; preds = %34, %26
  %41 = load ptr, ptr %1, align 8
  %42 = load ptr, ptr %41, align 8
  %43 = getelementptr inbounds %struct.JNINativeInterface_, ptr %42, i32 0, i32 141
  %44 = load ptr, ptr %43, align 8
  %45 = load ptr, ptr %1, align 8
  %46 = load ptr, ptr @tkClass, align 8
  %47 = load ptr, ptr @awtLockMID, align 8
  call void (ptr, ptr, ptr, ...) %44(ptr noundef %45, ptr noundef %46, ptr noundef %47)
  %48 = load ptr, ptr %1, align 8
  %49 = load ptr, ptr %48, align 8
  %50 = getelementptr inbounds %struct.JNINativeInterface_, ptr %49, i32 0, i32 228
  %51 = load ptr, ptr %50, align 8
  %52 = load ptr, ptr %1, align 8
  %53 = call zeroext i8 %51(ptr noundef %52)
  %54 = icmp ne i8 %53, 0
  br i1 %54, label %55, label %61

55:                                               ; preds = %40
  %56 = load ptr, ptr %1, align 8
  %57 = load ptr, ptr %56, align 8
  %58 = getelementptr inbounds %struct.JNINativeInterface_, ptr %57, i32 0, i32 17
  %59 = load ptr, ptr %58, align 8
  %60 = load ptr, ptr %1, align 8
  call void %59(ptr noundef %60)
  br label %61

61:                                               ; preds = %55, %40
  br label %62

62:                                               ; preds = %61
  %63 = load ptr, ptr @awt_display, align 8
  %64 = call i32 @XFlush(ptr noundef %63)
  %65 = load i64, ptr %2, align 8
  store i64 %65, ptr @awt_last_flush_time, align 8
  br label %66

66:                                               ; preds = %62
  %67 = load ptr, ptr %1, align 8
  %68 = load ptr, ptr %67, align 8
  %69 = getelementptr inbounds %struct.JNINativeInterface_, ptr %68, i32 0, i32 15
  %70 = load ptr, ptr %69, align 8
  %71 = load ptr, ptr %1, align 8
  %72 = call ptr %70(ptr noundef %71)
  store ptr %72, ptr %5, align 8
  %73 = icmp ne ptr %72, null
  br i1 %73, label %74, label %80

74:                                               ; preds = %66
  %75 = load ptr, ptr %1, align 8
  %76 = load ptr, ptr %75, align 8
  %77 = getelementptr inbounds %struct.JNINativeInterface_, ptr %76, i32 0, i32 17
  %78 = load ptr, ptr %77, align 8
  %79 = load ptr, ptr %1, align 8
  call void %78(ptr noundef %79)
  br label %80

80:                                               ; preds = %74, %66
  %81 = load ptr, ptr %1, align 8
  %82 = load ptr, ptr %81, align 8
  %83 = getelementptr inbounds %struct.JNINativeInterface_, ptr %82, i32 0, i32 141
  %84 = load ptr, ptr %83, align 8
  %85 = load ptr, ptr %1, align 8
  %86 = load ptr, ptr @tkClass, align 8
  %87 = load ptr, ptr @awtUnlockMID, align 8
  call void (ptr, ptr, ptr, ...) %84(ptr noundef %85, ptr noundef %86, ptr noundef %87)
  %88 = load ptr, ptr %1, align 8
  %89 = load ptr, ptr %88, align 8
  %90 = getelementptr inbounds %struct.JNINativeInterface_, ptr %89, i32 0, i32 228
  %91 = load ptr, ptr %90, align 8
  %92 = load ptr, ptr %1, align 8
  %93 = call zeroext i8 %91(ptr noundef %92)
  %94 = icmp ne i8 %93, 0
  br i1 %94, label %95, label %101

95:                                               ; preds = %80
  %96 = load ptr, ptr %1, align 8
  %97 = load ptr, ptr %96, align 8
  %98 = getelementptr inbounds %struct.JNINativeInterface_, ptr %97, i32 0, i32 17
  %99 = load ptr, ptr %98, align 8
  %100 = load ptr, ptr %1, align 8
  call void %99(ptr noundef %100)
  br label %101

101:                                              ; preds = %95, %80
  %102 = load ptr, ptr %5, align 8
  %103 = icmp ne ptr %102, null
  br i1 %103, label %104, label %112

104:                                              ; preds = %101
  %105 = load ptr, ptr %1, align 8
  %106 = load ptr, ptr %105, align 8
  %107 = getelementptr inbounds %struct.JNINativeInterface_, ptr %106, i32 0, i32 13
  %108 = load ptr, ptr %107, align 8
  %109 = load ptr, ptr %1, align 8
  %110 = load ptr, ptr %5, align 8
  %111 = call i32 %108(ptr noundef %109, ptr noundef %110)
  br label %112

112:                                              ; preds = %104, %101
  br label %113

113:                                              ; preds = %112
  br label %121

114:                                              ; preds = %8
  %115 = load i64, ptr %4, align 8
  store i64 %115, ptr @awt_next_flush_time, align 8
  %116 = load i32, ptr @tracing, align 4
  %117 = icmp ne i32 %116, 0
  br i1 %117, label %118, label %120

118:                                              ; preds = %114
  %119 = call i32 (ptr, ...) @printf(ptr noundef @.str.28)
  br label %120

120:                                              ; preds = %118, %114
  call void @wakeUp()
  br label %121

121:                                              ; preds = %120, %113
  br label %122

122:                                              ; preds = %121, %0
  ret void
}