; Function Attrs: nounwind uwtable
define hidden void @awt_output_flush() local_unnamed_addr #0 {
  %1 = alloca %struct.timeval, align 8
  %2 = load i64, ptr @awt_next_flush_time, align 8
  %3 = icmp eq i64 %2, 0
  br i1 %3, label %4, label %wakeUp.exit

4:                                                ; preds = %0
  %5 = load ptr, ptr @jvm_xawt, align 8
  %6 = tail call ptr @JNU_GetEnv(ptr noundef %5, i32 noundef 65538) #13
  call void @llvm.lifetime.start.p0(i64 16, ptr nonnull %1)
  %7 = call i32 @gettimeofday(ptr noundef nonnull %1, ptr noundef null) #13
  %8 = load i64, ptr %1, align 8
  %9 = mul nsw i64 %8, 1000
  %10 = getelementptr inbounds i8, ptr %1, i64 8
  %11 = load i64, ptr %10, align 8
  %12 = sdiv i64 %11, 1000
  %13 = add nsw i64 %12, %9
  call void @llvm.lifetime.end.p0(i64 16, ptr nonnull %1)
  %14 = load i64, ptr @awt_last_flush_time, align 8
  %15 = load i32, ptr @AWT_FLUSH_TIMEOUT, align 4
  %16 = zext i32 %15 to i64
  %17 = add nuw nsw i64 %14, %16
  %.not = icmp slt i64 %13, %17
  br i1 %.not, label %75, label %18

18:                                               ; preds = %4
  %19 = load i32, ptr @tracing, align 4
  %.not31 = icmp eq i32 %19, 0
  br i1 %.not31, label %21, label %20

20:                                               ; preds = %18
  %puts32 = tail call i32 @puts(ptr nonnull dereferenceable(1) @str.1)
  br label %21

21:                                               ; preds = %18, %20
  %22 = load ptr, ptr %6, align 8
  %23 = getelementptr inbounds i8, ptr %22, i64 1824
  %24 = load ptr, ptr %23, align 8
  %25 = tail call zeroext i8 %24(ptr noundef nonnull %6) #13
  %.not33 = icmp eq i8 %25, 0
  br i1 %.not33, label %30, label %26

26:                                               ; preds = %21
  %27 = load ptr, ptr %6, align 8
  %28 = getelementptr inbounds i8, ptr %27, i64 136
  %29 = load ptr, ptr %28, align 8
  tail call void %29(ptr noundef nonnull %6) #13
  br label %30

30:                                               ; preds = %26, %21
  %31 = load ptr, ptr %6, align 8
  %32 = getelementptr inbounds i8, ptr %31, i64 1128
  %33 = load ptr, ptr %32, align 8
  %34 = load ptr, ptr @tkClass, align 8
  %35 = load ptr, ptr @awtLockMID, align 8
  tail call void (ptr, ptr, ptr, ...) %33(ptr noundef nonnull %6, ptr noundef %34, ptr noundef %35) #13
  %36 = load ptr, ptr %6, align 8
  %37 = getelementptr inbounds i8, ptr %36, i64 1824
  %38 = load ptr, ptr %37, align 8
  %39 = tail call zeroext i8 %38(ptr noundef nonnull %6) #13
  %.not34 = icmp eq i8 %39, 0
  br i1 %.not34, label %44, label %40

40:                                               ; preds = %30
  %41 = load ptr, ptr %6, align 8
  %42 = getelementptr inbounds i8, ptr %41, i64 136
  %43 = load ptr, ptr %42, align 8
  tail call void %43(ptr noundef nonnull %6) #13
  br label %44

44:                                               ; preds = %30, %40
  %45 = load ptr, ptr @awt_display, align 8
  %46 = tail call i32 @XFlush(ptr noundef %45) #13
  store i64 %13, ptr @awt_last_flush_time, align 8
  %47 = load ptr, ptr %6, align 8
  %48 = getelementptr inbounds i8, ptr %47, i64 120
  %49 = load ptr, ptr %48, align 8
  %50 = tail call ptr %49(ptr noundef nonnull %6) #13
  %.not35 = icmp eq ptr %50, null
  br i1 %.not35, label %55, label %51

51:                                               ; preds = %44
  %52 = load ptr, ptr %6, align 8
  %53 = getelementptr inbounds i8, ptr %52, i64 136
  %54 = load ptr, ptr %53, align 8
  tail call void %54(ptr noundef nonnull %6) #13
  br label %55

55:                                               ; preds = %51, %44
  %56 = load ptr, ptr %6, align 8
  %57 = getelementptr inbounds i8, ptr %56, i64 1128
  %58 = load ptr, ptr %57, align 8
  %59 = load ptr, ptr @tkClass, align 8
  %60 = load ptr, ptr @awtUnlockMID, align 8
  tail call void (ptr, ptr, ptr, ...) %58(ptr noundef nonnull %6, ptr noundef %59, ptr noundef %60) #13
  %61 = load ptr, ptr %6, align 8
  %62 = getelementptr inbounds i8, ptr %61, i64 1824
  %63 = load ptr, ptr %62, align 8
  %64 = tail call zeroext i8 %63(ptr noundef nonnull %6) #13
  %.not36 = icmp eq i8 %64, 0
  br i1 %.not36, label %69, label %65

65:                                               ; preds = %55
  %66 = load ptr, ptr %6, align 8
  %67 = getelementptr inbounds i8, ptr %66, i64 136
  %68 = load ptr, ptr %67, align 8
  tail call void %68(ptr noundef nonnull %6) #13
  br label %69

69:                                               ; preds = %65, %55
  br i1 %.not35, label %wakeUp.exit, label %70

70:                                               ; preds = %69
  %71 = load ptr, ptr %6, align 8
  %72 = getelementptr inbounds i8, ptr %71, i64 104
  %73 = load ptr, ptr %72, align 8
  %74 = tail call i32 %73(ptr noundef nonnull %6, ptr noundef nonnull %50) #13
  br label %wakeUp.exit

75:                                               ; preds = %4
  store i64 %17, ptr @awt_next_flush_time, align 8
  %76 = load i32, ptr @tracing, align 4
  %.not30 = icmp eq i32 %76, 0
  br i1 %.not30, label %78, label %77

77:                                               ; preds = %75
  %puts = tail call i32 @puts(ptr nonnull dereferenceable(1) @str)
  br label %78

78:                                               ; preds = %77, %75
  %79 = load i64, ptr @awt_MainThread, align 8
  %80 = tail call i64 @pthread_self() #14
  %81 = icmp ne i64 %79, %80
  %.b.i = load i1, ptr @awt_pipe_inited, align 1
  %or.cond.i = select i1 %81, i1 %.b.i, i1 false
  br i1 %or.cond.i, label %82, label %wakeUp.exit

82:                                               ; preds = %78
  %83 = load i32, ptr getelementptr inbounds (i8, ptr @awt_pipe_fds, i64 4), align 4
  %84 = tail call i64 @write(i32 noundef %83, ptr noundef nonnull @wakeUp.wakeUp_char, i64 noundef 1) #13
  br label %wakeUp.exit

wakeUp.exit:                                      ; preds = %82, %78, %69, %70, %0
  ret void
}